
_kill:     file format elf32-i386


Disassembly of section .text:

00000000 <main>:
   0:	f3 0f 1e fb          	endbr32 
   4:	8d 4c 24 04          	lea    0x4(%esp),%ecx
   8:	83 e4 f0             	and    $0xfffffff0,%esp
   b:	ff 71 fc             	pushl  -0x4(%ecx)
   e:	55                   	push   %ebp
   f:	89 e5                	mov    %esp,%ebp
  11:	56                   	push   %esi
  12:	53                   	push   %ebx
  13:	51                   	push   %ecx
  14:	83 ec 0c             	sub    $0xc,%esp
  17:	8b 01                	mov    (%ecx),%eax
  19:	8b 51 04             	mov    0x4(%ecx),%edx
  1c:	83 f8 01             	cmp    $0x1,%eax
  1f:	7e 30                	jle    51 <main+0x51>
  21:	8d 5a 04             	lea    0x4(%edx),%ebx
  24:	8d 34 82             	lea    (%edx,%eax,4),%esi
  27:	8d b4 26 00 00 00 00 	lea    0x0(%esi,%eiz,1),%esi
  2e:	66 90                	xchg   %ax,%ax
  30:	83 ec 0c             	sub    $0xc,%esp
  33:	ff 33                	pushl  (%ebx)
  35:	83 c3 04             	add    $0x4,%ebx
  38:	e8 23 02 00 00       	call   260 <atoi>
  3d:	89 04 24             	mov    %eax,(%esp)
  40:	e8 be 02 00 00       	call   303 <kill>
  45:	83 c4 10             	add    $0x10,%esp
  48:	39 f3                	cmp    %esi,%ebx
  4a:	75 e4                	jne    30 <main+0x30>
  4c:	e8 82 02 00 00       	call   2d3 <exit>
  51:	50                   	push   %eax
  52:	50                   	push   %eax
  53:	68 98 07 00 00       	push   $0x798
  58:	6a 02                	push   $0x2
  5a:	e8 d1 03 00 00       	call   430 <printf>
  5f:	e8 6f 02 00 00       	call   2d3 <exit>
  64:	66 90                	xchg   %ax,%ax
  66:	66 90                	xchg   %ax,%ax
  68:	66 90                	xchg   %ax,%ax
  6a:	66 90                	xchg   %ax,%ax
  6c:	66 90                	xchg   %ax,%ax
  6e:	66 90                	xchg   %ax,%ax

00000070 <strcpy>:
  70:	f3 0f 1e fb          	endbr32 
  74:	55                   	push   %ebp
  75:	31 c0                	xor    %eax,%eax
  77:	89 e5                	mov    %esp,%ebp
  79:	53                   	push   %ebx
  7a:	8b 4d 08             	mov    0x8(%ebp),%ecx
  7d:	8b 5d 0c             	mov    0xc(%ebp),%ebx
  80:	0f b6 14 03          	movzbl (%ebx,%eax,1),%edx
  84:	88 14 01             	mov    %dl,(%ecx,%eax,1)
  87:	83 c0 01             	add    $0x1,%eax
  8a:	84 d2                	test   %dl,%dl
  8c:	75 f2                	jne    80 <strcpy+0x10>
  8e:	89 c8                	mov    %ecx,%eax
  90:	5b                   	pop    %ebx
  91:	5d                   	pop    %ebp
  92:	c3                   	ret    
  93:	8d b4 26 00 00 00 00 	lea    0x0(%esi,%eiz,1),%esi
  9a:	8d b6 00 00 00 00    	lea    0x0(%esi),%esi

000000a0 <strcmp>:
  a0:	f3 0f 1e fb          	endbr32 
  a4:	55                   	push   %ebp
  a5:	89 e5                	mov    %esp,%ebp
  a7:	53                   	push   %ebx
  a8:	8b 4d 08             	mov    0x8(%ebp),%ecx
  ab:	8b 55 0c             	mov    0xc(%ebp),%edx
  ae:	0f b6 01             	movzbl (%ecx),%eax
  b1:	0f b6 1a             	movzbl (%edx),%ebx
  b4:	84 c0                	test   %al,%al
  b6:	75 19                	jne    d1 <strcmp+0x31>
  b8:	eb 26                	jmp    e0 <strcmp+0x40>
  ba:	8d b6 00 00 00 00    	lea    0x0(%esi),%esi
  c0:	0f b6 41 01          	movzbl 0x1(%ecx),%eax
  c4:	83 c1 01             	add    $0x1,%ecx
  c7:	83 c2 01             	add    $0x1,%edx
  ca:	0f b6 1a             	movzbl (%edx),%ebx
  cd:	84 c0                	test   %al,%al
  cf:	74 0f                	je     e0 <strcmp+0x40>
  d1:	38 d8                	cmp    %bl,%al
  d3:	74 eb                	je     c0 <strcmp+0x20>
  d5:	29 d8                	sub    %ebx,%eax
  d7:	5b                   	pop    %ebx
  d8:	5d                   	pop    %ebp
  d9:	c3                   	ret    
  da:	8d b6 00 00 00 00    	lea    0x0(%esi),%esi
  e0:	31 c0                	xor    %eax,%eax
  e2:	29 d8                	sub    %ebx,%eax
  e4:	5b                   	pop    %ebx
  e5:	5d                   	pop    %ebp
  e6:	c3                   	ret    
  e7:	8d b4 26 00 00 00 00 	lea    0x0(%esi,%eiz,1),%esi
  ee:	66 90                	xchg   %ax,%ax

000000f0 <strlen>:
  f0:	f3 0f 1e fb          	endbr32 
  f4:	55                   	push   %ebp
  f5:	89 e5                	mov    %esp,%ebp
  f7:	8b 55 08             	mov    0x8(%ebp),%edx
  fa:	80 3a 00             	cmpb   $0x0,(%edx)
  fd:	74 21                	je     120 <strlen+0x30>
  ff:	31 c0                	xor    %eax,%eax
 101:	8d b4 26 00 00 00 00 	lea    0x0(%esi,%eiz,1),%esi
 108:	83 c0 01             	add    $0x1,%eax
 10b:	80 3c 02 00          	cmpb   $0x0,(%edx,%eax,1)
 10f:	89 c1                	mov    %eax,%ecx
 111:	75 f5                	jne    108 <strlen+0x18>
 113:	89 c8                	mov    %ecx,%eax
 115:	5d                   	pop    %ebp
 116:	c3                   	ret    
 117:	8d b4 26 00 00 00 00 	lea    0x0(%esi,%eiz,1),%esi
 11e:	66 90                	xchg   %ax,%ax
 120:	31 c9                	xor    %ecx,%ecx
 122:	5d                   	pop    %ebp
 123:	89 c8                	mov    %ecx,%eax
 125:	c3                   	ret    
 126:	8d b4 26 00 00 00 00 	lea    0x0(%esi,%eiz,1),%esi
 12d:	8d 76 00             	lea    0x0(%esi),%esi

00000130 <memset>:
 130:	f3 0f 1e fb          	endbr32 
 134:	55                   	push   %ebp
 135:	89 e5                	mov    %esp,%ebp
 137:	57                   	push   %edi
 138:	8b 55 08             	mov    0x8(%ebp),%edx
 13b:	8b 4d 10             	mov    0x10(%ebp),%ecx
 13e:	8b 45 0c             	mov    0xc(%ebp),%eax
 141:	89 d7                	mov    %edx,%edi
 143:	fc                   	cld    
 144:	f3 aa                	rep stos %al,%es:(%edi)
 146:	89 d0                	mov    %edx,%eax
 148:	5f                   	pop    %edi
 149:	5d                   	pop    %ebp
 14a:	c3                   	ret    
 14b:	8d 74 26 00          	lea    0x0(%esi,%eiz,1),%esi
 14f:	90                   	nop

00000150 <strchr>:
 150:	f3 0f 1e fb          	endbr32 
 154:	55                   	push   %ebp
 155:	89 e5                	mov    %esp,%ebp
 157:	8b 45 08             	mov    0x8(%ebp),%eax
 15a:	0f b6 4d 0c          	movzbl 0xc(%ebp),%ecx
 15e:	0f b6 10             	movzbl (%eax),%edx
 161:	84 d2                	test   %dl,%dl
 163:	75 16                	jne    17b <strchr+0x2b>
 165:	eb 21                	jmp    188 <strchr+0x38>
 167:	8d b4 26 00 00 00 00 	lea    0x0(%esi,%eiz,1),%esi
 16e:	66 90                	xchg   %ax,%ax
 170:	0f b6 50 01          	movzbl 0x1(%eax),%edx
 174:	83 c0 01             	add    $0x1,%eax
 177:	84 d2                	test   %dl,%dl
 179:	74 0d                	je     188 <strchr+0x38>
 17b:	38 d1                	cmp    %dl,%cl
 17d:	75 f1                	jne    170 <strchr+0x20>
 17f:	5d                   	pop    %ebp
 180:	c3                   	ret    
 181:	8d b4 26 00 00 00 00 	lea    0x0(%esi,%eiz,1),%esi
 188:	31 c0                	xor    %eax,%eax
 18a:	5d                   	pop    %ebp
 18b:	c3                   	ret    
 18c:	8d 74 26 00          	lea    0x0(%esi,%eiz,1),%esi

00000190 <gets>:
 190:	f3 0f 1e fb          	endbr32 
 194:	55                   	push   %ebp
 195:	89 e5                	mov    %esp,%ebp
 197:	57                   	push   %edi
 198:	56                   	push   %esi
 199:	31 f6                	xor    %esi,%esi
 19b:	53                   	push   %ebx
 19c:	89 f3                	mov    %esi,%ebx
 19e:	83 ec 1c             	sub    $0x1c,%esp
 1a1:	8b 7d 08             	mov    0x8(%ebp),%edi
 1a4:	eb 33                	jmp    1d9 <gets+0x49>
 1a6:	8d b4 26 00 00 00 00 	lea    0x0(%esi,%eiz,1),%esi
 1ad:	8d 76 00             	lea    0x0(%esi),%esi
 1b0:	83 ec 04             	sub    $0x4,%esp
 1b3:	8d 45 e7             	lea    -0x19(%ebp),%eax
 1b6:	6a 01                	push   $0x1
 1b8:	50                   	push   %eax
 1b9:	6a 00                	push   $0x0
 1bb:	e8 2b 01 00 00       	call   2eb <read>
 1c0:	83 c4 10             	add    $0x10,%esp
 1c3:	85 c0                	test   %eax,%eax
 1c5:	7e 1c                	jle    1e3 <gets+0x53>
 1c7:	0f b6 45 e7          	movzbl -0x19(%ebp),%eax
 1cb:	83 c7 01             	add    $0x1,%edi
 1ce:	88 47 ff             	mov    %al,-0x1(%edi)
 1d1:	3c 0a                	cmp    $0xa,%al
 1d3:	74 23                	je     1f8 <gets+0x68>
 1d5:	3c 0d                	cmp    $0xd,%al
 1d7:	74 1f                	je     1f8 <gets+0x68>
 1d9:	83 c3 01             	add    $0x1,%ebx
 1dc:	89 fe                	mov    %edi,%esi
 1de:	3b 5d 0c             	cmp    0xc(%ebp),%ebx
 1e1:	7c cd                	jl     1b0 <gets+0x20>
 1e3:	89 f3                	mov    %esi,%ebx
 1e5:	8b 45 08             	mov    0x8(%ebp),%eax
 1e8:	c6 03 00             	movb   $0x0,(%ebx)
 1eb:	8d 65 f4             	lea    -0xc(%ebp),%esp
 1ee:	5b                   	pop    %ebx
 1ef:	5e                   	pop    %esi
 1f0:	5f                   	pop    %edi
 1f1:	5d                   	pop    %ebp
 1f2:	c3                   	ret    
 1f3:	8d 74 26 00          	lea    0x0(%esi,%eiz,1),%esi
 1f7:	90                   	nop
 1f8:	8b 75 08             	mov    0x8(%ebp),%esi
 1fb:	8b 45 08             	mov    0x8(%ebp),%eax
 1fe:	01 de                	add    %ebx,%esi
 200:	89 f3                	mov    %esi,%ebx
 202:	c6 03 00             	movb   $0x0,(%ebx)
 205:	8d 65 f4             	lea    -0xc(%ebp),%esp
 208:	5b                   	pop    %ebx
 209:	5e                   	pop    %esi
 20a:	5f                   	pop    %edi
 20b:	5d                   	pop    %ebp
 20c:	c3                   	ret    
 20d:	8d 76 00             	lea    0x0(%esi),%esi

00000210 <stat>:
 210:	f3 0f 1e fb          	endbr32 
 214:	55                   	push   %ebp
 215:	89 e5                	mov    %esp,%ebp
 217:	56                   	push   %esi
 218:	53                   	push   %ebx
 219:	83 ec 08             	sub    $0x8,%esp
 21c:	6a 00                	push   $0x0
 21e:	ff 75 08             	pushl  0x8(%ebp)
 221:	e8 ed 00 00 00       	call   313 <open>
 226:	83 c4 10             	add    $0x10,%esp
 229:	85 c0                	test   %eax,%eax
 22b:	78 2b                	js     258 <stat+0x48>
 22d:	83 ec 08             	sub    $0x8,%esp
 230:	ff 75 0c             	pushl  0xc(%ebp)
 233:	89 c3                	mov    %eax,%ebx
 235:	50                   	push   %eax
 236:	e8 f0 00 00 00       	call   32b <fstat>
 23b:	89 1c 24             	mov    %ebx,(%esp)
 23e:	89 c6                	mov    %eax,%esi
 240:	e8 b6 00 00 00       	call   2fb <close>
 245:	83 c4 10             	add    $0x10,%esp
 248:	8d 65 f8             	lea    -0x8(%ebp),%esp
 24b:	89 f0                	mov    %esi,%eax
 24d:	5b                   	pop    %ebx
 24e:	5e                   	pop    %esi
 24f:	5d                   	pop    %ebp
 250:	c3                   	ret    
 251:	8d b4 26 00 00 00 00 	lea    0x0(%esi,%eiz,1),%esi
 258:	be ff ff ff ff       	mov    $0xffffffff,%esi
 25d:	eb e9                	jmp    248 <stat+0x38>
 25f:	90                   	nop

00000260 <atoi>:
 260:	f3 0f 1e fb          	endbr32 
 264:	55                   	push   %ebp
 265:	89 e5                	mov    %esp,%ebp
 267:	53                   	push   %ebx
 268:	8b 55 08             	mov    0x8(%ebp),%edx
 26b:	0f be 02             	movsbl (%edx),%eax
 26e:	8d 48 d0             	lea    -0x30(%eax),%ecx
 271:	80 f9 09             	cmp    $0x9,%cl
 274:	b9 00 00 00 00       	mov    $0x0,%ecx
 279:	77 1a                	ja     295 <atoi+0x35>
 27b:	8d 74 26 00          	lea    0x0(%esi,%eiz,1),%esi
 27f:	90                   	nop
 280:	83 c2 01             	add    $0x1,%edx
 283:	8d 0c 89             	lea    (%ecx,%ecx,4),%ecx
 286:	8d 4c 48 d0          	lea    -0x30(%eax,%ecx,2),%ecx
 28a:	0f be 02             	movsbl (%edx),%eax
 28d:	8d 58 d0             	lea    -0x30(%eax),%ebx
 290:	80 fb 09             	cmp    $0x9,%bl
 293:	76 eb                	jbe    280 <atoi+0x20>
 295:	89 c8                	mov    %ecx,%eax
 297:	5b                   	pop    %ebx
 298:	5d                   	pop    %ebp
 299:	c3                   	ret    
 29a:	8d b6 00 00 00 00    	lea    0x0(%esi),%esi

000002a0 <memmove>:
 2a0:	f3 0f 1e fb          	endbr32 
 2a4:	55                   	push   %ebp
 2a5:	89 e5                	mov    %esp,%ebp
 2a7:	57                   	push   %edi
 2a8:	8b 45 10             	mov    0x10(%ebp),%eax
 2ab:	8b 55 08             	mov    0x8(%ebp),%edx
 2ae:	56                   	push   %esi
 2af:	8b 75 0c             	mov    0xc(%ebp),%esi
 2b2:	85 c0                	test   %eax,%eax
 2b4:	7e 0f                	jle    2c5 <memmove+0x25>
 2b6:	01 d0                	add    %edx,%eax
 2b8:	89 d7                	mov    %edx,%edi
 2ba:	8d b6 00 00 00 00    	lea    0x0(%esi),%esi
 2c0:	a4                   	movsb  %ds:(%esi),%es:(%edi)
 2c1:	39 f8                	cmp    %edi,%eax
 2c3:	75 fb                	jne    2c0 <memmove+0x20>
 2c5:	5e                   	pop    %esi
 2c6:	89 d0                	mov    %edx,%eax
 2c8:	5f                   	pop    %edi
 2c9:	5d                   	pop    %ebp
 2ca:	c3                   	ret    

000002cb <fork>:
 2cb:	b8 01 00 00 00       	mov    $0x1,%eax
 2d0:	cd 40                	int    $0x40
 2d2:	c3                   	ret    

000002d3 <exit>:
 2d3:	b8 02 00 00 00       	mov    $0x2,%eax
 2d8:	cd 40                	int    $0x40
 2da:	c3                   	ret    

000002db <wait>:
 2db:	b8 03 00 00 00       	mov    $0x3,%eax
 2e0:	cd 40                	int    $0x40
 2e2:	c3                   	ret    

000002e3 <pipe>:
 2e3:	b8 04 00 00 00       	mov    $0x4,%eax
 2e8:	cd 40                	int    $0x40
 2ea:	c3                   	ret    

000002eb <read>:
 2eb:	b8 05 00 00 00       	mov    $0x5,%eax
 2f0:	cd 40                	int    $0x40
 2f2:	c3                   	ret    

000002f3 <write>:
 2f3:	b8 10 00 00 00       	mov    $0x10,%eax
 2f8:	cd 40                	int    $0x40
 2fa:	c3                   	ret    

000002fb <close>:
 2fb:	b8 15 00 00 00       	mov    $0x15,%eax
 300:	cd 40                	int    $0x40
 302:	c3                   	ret    

00000303 <kill>:
 303:	b8 06 00 00 00       	mov    $0x6,%eax
 308:	cd 40                	int    $0x40
 30a:	c3                   	ret    

0000030b <exec>:
 30b:	b8 07 00 00 00       	mov    $0x7,%eax
 310:	cd 40                	int    $0x40
 312:	c3                   	ret    

00000313 <open>:
 313:	b8 0f 00 00 00       	mov    $0xf,%eax
 318:	cd 40                	int    $0x40
 31a:	c3                   	ret    

0000031b <mknod>:
 31b:	b8 11 00 00 00       	mov    $0x11,%eax
 320:	cd 40                	int    $0x40
 322:	c3                   	ret    

00000323 <unlink>:
 323:	b8 12 00 00 00       	mov    $0x12,%eax
 328:	cd 40                	int    $0x40
 32a:	c3                   	ret    

0000032b <fstat>:
 32b:	b8 08 00 00 00       	mov    $0x8,%eax
 330:	cd 40                	int    $0x40
 332:	c3                   	ret    

00000333 <link>:
 333:	b8 13 00 00 00       	mov    $0x13,%eax
 338:	cd 40                	int    $0x40
 33a:	c3                   	ret    

0000033b <mkdir>:
 33b:	b8 14 00 00 00       	mov    $0x14,%eax
 340:	cd 40                	int    $0x40
 342:	c3                   	ret    

00000343 <chdir>:
 343:	b8 09 00 00 00       	mov    $0x9,%eax
 348:	cd 40                	int    $0x40
 34a:	c3                   	ret    

0000034b <dup>:
 34b:	b8 0a 00 00 00       	mov    $0xa,%eax
 350:	cd 40                	int    $0x40
 352:	c3                   	ret    

00000353 <getpid>:
 353:	b8 0b 00 00 00       	mov    $0xb,%eax
 358:	cd 40                	int    $0x40
 35a:	c3                   	ret    

0000035b <sbrk>:
 35b:	b8 0c 00 00 00       	mov    $0xc,%eax
 360:	cd 40                	int    $0x40
 362:	c3                   	ret    

00000363 <sleep>:
 363:	b8 0d 00 00 00       	mov    $0xd,%eax
 368:	cd 40                	int    $0x40
 36a:	c3                   	ret    

0000036b <uptime>:
 36b:	b8 0e 00 00 00       	mov    $0xe,%eax
 370:	cd 40                	int    $0x40
 372:	c3                   	ret    
 373:	66 90                	xchg   %ax,%ax
 375:	66 90                	xchg   %ax,%ax
 377:	66 90                	xchg   %ax,%ax
 379:	66 90                	xchg   %ax,%ax
 37b:	66 90                	xchg   %ax,%ax
 37d:	66 90                	xchg   %ax,%ax
 37f:	90                   	nop

00000380 <printint>:
  write(fd, &c, 1);
}

static void
printint(int fd, int xx, int base, int sgn)
{
 380:	55                   	push   %ebp
 381:	89 e5                	mov    %esp,%ebp
 383:	57                   	push   %edi
 384:	56                   	push   %esi
 385:	53                   	push   %ebx
 386:	83 ec 3c             	sub    $0x3c,%esp
 389:	89 4d c4             	mov    %ecx,-0x3c(%ebp)
  uint x;

  neg = 0;
  if(sgn && xx < 0){
    neg = 1;
    x = -xx;
 38c:	89 d1                	mov    %edx,%ecx
{
 38e:	89 45 b8             	mov    %eax,-0x48(%ebp)
  if(sgn && xx < 0){
 391:	85 d2                	test   %edx,%edx
 393:	0f 89 7f 00 00 00    	jns    418 <printint+0x98>
 399:	f6 45 08 01          	testb  $0x1,0x8(%ebp)
 39d:	74 79                	je     418 <printint+0x98>
    neg = 1;
 39f:	c7 45 bc 01 00 00 00 	movl   $0x1,-0x44(%ebp)
    x = -xx;
 3a6:	f7 d9                	neg    %ecx
  } else {
    x = xx;
  }

  i = 0;
 3a8:	31 db                	xor    %ebx,%ebx
 3aa:	8d 75 d7             	lea    -0x29(%ebp),%esi
 3ad:	8d 76 00             	lea    0x0(%esi),%esi
  do{
    buf[i++] = digits[x % base];
 3b0:	89 c8                	mov    %ecx,%eax
 3b2:	31 d2                	xor    %edx,%edx
 3b4:	89 cf                	mov    %ecx,%edi
 3b6:	f7 75 c4             	divl   -0x3c(%ebp)
 3b9:	0f b6 92 b4 07 00 00 	movzbl 0x7b4(%edx),%edx
 3c0:	89 45 c0             	mov    %eax,-0x40(%ebp)
 3c3:	89 d8                	mov    %ebx,%eax
 3c5:	8d 5b 01             	lea    0x1(%ebx),%ebx
  }while((x /= base) != 0);
 3c8:	8b 4d c0             	mov    -0x40(%ebp),%ecx
    buf[i++] = digits[x % base];
 3cb:	88 14 1e             	mov    %dl,(%esi,%ebx,1)
  }while((x /= base) != 0);
 3ce:	39 7d c4             	cmp    %edi,-0x3c(%ebp)
 3d1:	76 dd                	jbe    3b0 <printint+0x30>
  if(neg)
 3d3:	8b 4d bc             	mov    -0x44(%ebp),%ecx
 3d6:	85 c9                	test   %ecx,%ecx
 3d8:	74 0c                	je     3e6 <printint+0x66>
    buf[i++] = '-';
 3da:	c6 44 1d d8 2d       	movb   $0x2d,-0x28(%ebp,%ebx,1)
    buf[i++] = digits[x % base];
 3df:	89 d8                	mov    %ebx,%eax
    buf[i++] = '-';
 3e1:	ba 2d 00 00 00       	mov    $0x2d,%edx

  while(--i >= 0)
 3e6:	8b 7d b8             	mov    -0x48(%ebp),%edi
 3e9:	8d 5c 05 d7          	lea    -0x29(%ebp,%eax,1),%ebx
 3ed:	eb 07                	jmp    3f6 <printint+0x76>
 3ef:	90                   	nop
 3f0:	0f b6 13             	movzbl (%ebx),%edx
 3f3:	83 eb 01             	sub    $0x1,%ebx
  write(fd, &c, 1);
 3f6:	83 ec 04             	sub    $0x4,%esp
 3f9:	88 55 d7             	mov    %dl,-0x29(%ebp)
 3fc:	6a 01                	push   $0x1
 3fe:	56                   	push   %esi
 3ff:	57                   	push   %edi
 400:	e8 ee fe ff ff       	call   2f3 <write>
  while(--i >= 0)
 405:	83 c4 10             	add    $0x10,%esp
 408:	39 de                	cmp    %ebx,%esi
 40a:	75 e4                	jne    3f0 <printint+0x70>
    putc(fd, buf[i]);
}
 40c:	8d 65 f4             	lea    -0xc(%ebp),%esp
 40f:	5b                   	pop    %ebx
 410:	5e                   	pop    %esi
 411:	5f                   	pop    %edi
 412:	5d                   	pop    %ebp
 413:	c3                   	ret    
 414:	8d 74 26 00          	lea    0x0(%esi,%eiz,1),%esi
  neg = 0;
 418:	c7 45 bc 00 00 00 00 	movl   $0x0,-0x44(%ebp)
 41f:	eb 87                	jmp    3a8 <printint+0x28>
 421:	8d b4 26 00 00 00 00 	lea    0x0(%esi,%eiz,1),%esi
 428:	8d b4 26 00 00 00 00 	lea    0x0(%esi,%eiz,1),%esi
 42f:	90                   	nop

00000430 <printf>:

// Print to the given fd. Only understands %d, %x, %p, %s.
void
printf(int fd, const char *fmt, ...)
{
 430:	f3 0f 1e fb          	endbr32 
 434:	55                   	push   %ebp
 435:	89 e5                	mov    %esp,%ebp
 437:	57                   	push   %edi
 438:	56                   	push   %esi
 439:	53                   	push   %ebx
 43a:	83 ec 2c             	sub    $0x2c,%esp
  int c, i, state;
  uint *ap;

  state = 0;
  ap = (uint*)(void*)&fmt + 1;
  for(i = 0; fmt[i]; i++){
 43d:	8b 75 0c             	mov    0xc(%ebp),%esi
 440:	0f b6 1e             	movzbl (%esi),%ebx
 443:	84 db                	test   %bl,%bl
 445:	0f 84 b4 00 00 00    	je     4ff <printf+0xcf>
  ap = (uint*)(void*)&fmt + 1;
 44b:	8d 45 10             	lea    0x10(%ebp),%eax
 44e:	83 c6 01             	add    $0x1,%esi
  write(fd, &c, 1);
 451:	8d 7d e7             	lea    -0x19(%ebp),%edi
  state = 0;
 454:	31 d2                	xor    %edx,%edx
  ap = (uint*)(void*)&fmt + 1;
 456:	89 45 d0             	mov    %eax,-0x30(%ebp)
 459:	eb 33                	jmp    48e <printf+0x5e>
 45b:	8d 74 26 00          	lea    0x0(%esi,%eiz,1),%esi
 45f:	90                   	nop
 460:	89 55 d4             	mov    %edx,-0x2c(%ebp)
    c = fmt[i] & 0xff;
    if(state == 0){
      if(c == '%'){
        state = '%';
 463:	ba 25 00 00 00       	mov    $0x25,%edx
      if(c == '%'){
 468:	83 f8 25             	cmp    $0x25,%eax
 46b:	74 17                	je     484 <printf+0x54>
  write(fd, &c, 1);
 46d:	83 ec 04             	sub    $0x4,%esp
 470:	88 5d e7             	mov    %bl,-0x19(%ebp)
 473:	6a 01                	push   $0x1
 475:	57                   	push   %edi
 476:	ff 75 08             	pushl  0x8(%ebp)
 479:	e8 75 fe ff ff       	call   2f3 <write>
 47e:	8b 55 d4             	mov    -0x2c(%ebp),%edx
      } else {
        putc(fd, c);
 481:	83 c4 10             	add    $0x10,%esp
  for(i = 0; fmt[i]; i++){
 484:	0f b6 1e             	movzbl (%esi),%ebx
 487:	83 c6 01             	add    $0x1,%esi
 48a:	84 db                	test   %bl,%bl
 48c:	74 71                	je     4ff <printf+0xcf>
    c = fmt[i] & 0xff;
 48e:	0f be cb             	movsbl %bl,%ecx
 491:	0f b6 c3             	movzbl %bl,%eax
    if(state == 0){
 494:	85 d2                	test   %edx,%edx
 496:	74 c8                	je     460 <printf+0x30>
      }
    } else if(state == '%'){
 498:	83 fa 25             	cmp    $0x25,%edx
 49b:	75 e7                	jne    484 <printf+0x54>
      if(c == 'd'){
 49d:	83 f8 64             	cmp    $0x64,%eax
 4a0:	0f 84 9a 00 00 00    	je     540 <printf+0x110>
        printint(fd, *ap, 10, 1);
        ap++;
      } else if(c == 'x' || c == 'p'){
 4a6:	81 e1 f7 00 00 00    	and    $0xf7,%ecx
 4ac:	83 f9 70             	cmp    $0x70,%ecx
 4af:	74 5f                	je     510 <printf+0xe0>
        printint(fd, *ap, 16, 0);
        ap++;
      } else if(c == 's'){
 4b1:	83 f8 73             	cmp    $0x73,%eax
 4b4:	0f 84 d6 00 00 00    	je     590 <printf+0x160>
          s = "(null)";
        while(*s != 0){
          putc(fd, *s);
          s++;
        }
      } else if(c == 'c'){
 4ba:	83 f8 63             	cmp    $0x63,%eax
 4bd:	0f 84 8d 00 00 00    	je     550 <printf+0x120>
        putc(fd, *ap);
        ap++;
      } else if(c == '%'){
 4c3:	83 f8 25             	cmp    $0x25,%eax
 4c6:	0f 84 b4 00 00 00    	je     580 <printf+0x150>
  write(fd, &c, 1);
 4cc:	83 ec 04             	sub    $0x4,%esp
 4cf:	c6 45 e7 25          	movb   $0x25,-0x19(%ebp)
 4d3:	6a 01                	push   $0x1
 4d5:	57                   	push   %edi
 4d6:	ff 75 08             	pushl  0x8(%ebp)
 4d9:	e8 15 fe ff ff       	call   2f3 <write>
        putc(fd, c);
      } else {
        // Unknown % sequence.  Print it to draw attention.
        putc(fd, '%');
        putc(fd, c);
 4de:	88 5d e7             	mov    %bl,-0x19(%ebp)
  write(fd, &c, 1);
 4e1:	83 c4 0c             	add    $0xc,%esp
 4e4:	6a 01                	push   $0x1
 4e6:	83 c6 01             	add    $0x1,%esi
 4e9:	57                   	push   %edi
 4ea:	ff 75 08             	pushl  0x8(%ebp)
 4ed:	e8 01 fe ff ff       	call   2f3 <write>
  for(i = 0; fmt[i]; i++){
 4f2:	0f b6 5e ff          	movzbl -0x1(%esi),%ebx
        putc(fd, c);
 4f6:	83 c4 10             	add    $0x10,%esp
      }
      state = 0;
 4f9:	31 d2                	xor    %edx,%edx
  for(i = 0; fmt[i]; i++){
 4fb:	84 db                	test   %bl,%bl
 4fd:	75 8f                	jne    48e <printf+0x5e>
    }
  }
}
 4ff:	8d 65 f4             	lea    -0xc(%ebp),%esp
 502:	5b                   	pop    %ebx
 503:	5e                   	pop    %esi
 504:	5f                   	pop    %edi
 505:	5d                   	pop    %ebp
 506:	c3                   	ret    
 507:	8d b4 26 00 00 00 00 	lea    0x0(%esi,%eiz,1),%esi
 50e:	66 90                	xchg   %ax,%ax
        printint(fd, *ap, 16, 0);
 510:	83 ec 0c             	sub    $0xc,%esp
 513:	b9 10 00 00 00       	mov    $0x10,%ecx
 518:	6a 00                	push   $0x0
 51a:	8b 5d d0             	mov    -0x30(%ebp),%ebx
 51d:	8b 45 08             	mov    0x8(%ebp),%eax
 520:	8b 13                	mov    (%ebx),%edx
 522:	e8 59 fe ff ff       	call   380 <printint>
        ap++;
 527:	89 d8                	mov    %ebx,%eax
 529:	83 c4 10             	add    $0x10,%esp
      state = 0;
 52c:	31 d2                	xor    %edx,%edx
        ap++;
 52e:	83 c0 04             	add    $0x4,%eax
 531:	89 45 d0             	mov    %eax,-0x30(%ebp)
 534:	e9 4b ff ff ff       	jmp    484 <printf+0x54>
 539:	8d b4 26 00 00 00 00 	lea    0x0(%esi,%eiz,1),%esi
        printint(fd, *ap, 10, 1);
 540:	83 ec 0c             	sub    $0xc,%esp
 543:	b9 0a 00 00 00       	mov    $0xa,%ecx
 548:	6a 01                	push   $0x1
 54a:	eb ce                	jmp    51a <printf+0xea>
 54c:	8d 74 26 00          	lea    0x0(%esi,%eiz,1),%esi
        putc(fd, *ap);
 550:	8b 5d d0             	mov    -0x30(%ebp),%ebx
  write(fd, &c, 1);
 553:	83 ec 04             	sub    $0x4,%esp
        putc(fd, *ap);
 556:	8b 03                	mov    (%ebx),%eax
  write(fd, &c, 1);
 558:	6a 01                	push   $0x1
        ap++;
 55a:	83 c3 04             	add    $0x4,%ebx
  write(fd, &c, 1);
 55d:	57                   	push   %edi
 55e:	ff 75 08             	pushl  0x8(%ebp)
        putc(fd, *ap);
 561:	88 45 e7             	mov    %al,-0x19(%ebp)
  write(fd, &c, 1);
 564:	e8 8a fd ff ff       	call   2f3 <write>
        ap++;
 569:	89 5d d0             	mov    %ebx,-0x30(%ebp)
 56c:	83 c4 10             	add    $0x10,%esp
      state = 0;
 56f:	31 d2                	xor    %edx,%edx
 571:	e9 0e ff ff ff       	jmp    484 <printf+0x54>
 576:	8d b4 26 00 00 00 00 	lea    0x0(%esi,%eiz,1),%esi
 57d:	8d 76 00             	lea    0x0(%esi),%esi
        putc(fd, c);
 580:	88 5d e7             	mov    %bl,-0x19(%ebp)
  write(fd, &c, 1);
 583:	83 ec 04             	sub    $0x4,%esp
 586:	e9 59 ff ff ff       	jmp    4e4 <printf+0xb4>
 58b:	8d 74 26 00          	lea    0x0(%esi,%eiz,1),%esi
 58f:	90                   	nop
        s = (char*)*ap;
 590:	8b 45 d0             	mov    -0x30(%ebp),%eax
 593:	8b 18                	mov    (%eax),%ebx
        ap++;
 595:	83 c0 04             	add    $0x4,%eax
 598:	89 45 d0             	mov    %eax,-0x30(%ebp)
        if(s == 0)
 59b:	85 db                	test   %ebx,%ebx
 59d:	74 17                	je     5b6 <printf+0x186>
        while(*s != 0){
 59f:	0f b6 03             	movzbl (%ebx),%eax
      state = 0;
 5a2:	31 d2                	xor    %edx,%edx
        while(*s != 0){
 5a4:	84 c0                	test   %al,%al
 5a6:	0f 84 d8 fe ff ff    	je     484 <printf+0x54>
 5ac:	89 75 d4             	mov    %esi,-0x2c(%ebp)
 5af:	89 de                	mov    %ebx,%esi
 5b1:	8b 5d 08             	mov    0x8(%ebp),%ebx
 5b4:	eb 1a                	jmp    5d0 <printf+0x1a0>
          s = "(null)";
 5b6:	bb ac 07 00 00       	mov    $0x7ac,%ebx
        while(*s != 0){
 5bb:	89 75 d4             	mov    %esi,-0x2c(%ebp)
 5be:	b8 28 00 00 00       	mov    $0x28,%eax
 5c3:	89 de                	mov    %ebx,%esi
 5c5:	8b 5d 08             	mov    0x8(%ebp),%ebx
 5c8:	8d b4 26 00 00 00 00 	lea    0x0(%esi,%eiz,1),%esi
 5cf:	90                   	nop
  write(fd, &c, 1);
 5d0:	83 ec 04             	sub    $0x4,%esp
          s++;
 5d3:	83 c6 01             	add    $0x1,%esi
 5d6:	88 45 e7             	mov    %al,-0x19(%ebp)
  write(fd, &c, 1);
 5d9:	6a 01                	push   $0x1
 5db:	57                   	push   %edi
 5dc:	53                   	push   %ebx
 5dd:	e8 11 fd ff ff       	call   2f3 <write>
        while(*s != 0){
 5e2:	0f b6 06             	movzbl (%esi),%eax
 5e5:	83 c4 10             	add    $0x10,%esp
 5e8:	84 c0                	test   %al,%al
 5ea:	75 e4                	jne    5d0 <printf+0x1a0>
 5ec:	8b 75 d4             	mov    -0x2c(%ebp),%esi
      state = 0;
 5ef:	31 d2                	xor    %edx,%edx
 5f1:	e9 8e fe ff ff       	jmp    484 <printf+0x54>
 5f6:	66 90                	xchg   %ax,%ax
 5f8:	66 90                	xchg   %ax,%ax
 5fa:	66 90                	xchg   %ax,%ax
 5fc:	66 90                	xchg   %ax,%ax
 5fe:	66 90                	xchg   %ax,%ax

00000600 <free>:
 600:	f3 0f 1e fb          	endbr32 
 604:	55                   	push   %ebp
 605:	a1 64 0a 00 00       	mov    0xa64,%eax
 60a:	89 e5                	mov    %esp,%ebp
 60c:	57                   	push   %edi
 60d:	56                   	push   %esi
 60e:	53                   	push   %ebx
 60f:	8b 5d 08             	mov    0x8(%ebp),%ebx
 612:	8b 10                	mov    (%eax),%edx
 614:	8d 4b f8             	lea    -0x8(%ebx),%ecx
 617:	39 c8                	cmp    %ecx,%eax
 619:	73 15                	jae    630 <free+0x30>
 61b:	8d 74 26 00          	lea    0x0(%esi,%eiz,1),%esi
 61f:	90                   	nop
 620:	39 d1                	cmp    %edx,%ecx
 622:	72 14                	jb     638 <free+0x38>
 624:	39 d0                	cmp    %edx,%eax
 626:	73 10                	jae    638 <free+0x38>
 628:	89 d0                	mov    %edx,%eax
 62a:	8b 10                	mov    (%eax),%edx
 62c:	39 c8                	cmp    %ecx,%eax
 62e:	72 f0                	jb     620 <free+0x20>
 630:	39 d0                	cmp    %edx,%eax
 632:	72 f4                	jb     628 <free+0x28>
 634:	39 d1                	cmp    %edx,%ecx
 636:	73 f0                	jae    628 <free+0x28>
 638:	8b 73 fc             	mov    -0x4(%ebx),%esi
 63b:	8d 3c f1             	lea    (%ecx,%esi,8),%edi
 63e:	39 fa                	cmp    %edi,%edx
 640:	74 1e                	je     660 <free+0x60>
 642:	89 53 f8             	mov    %edx,-0x8(%ebx)
 645:	8b 50 04             	mov    0x4(%eax),%edx
 648:	8d 34 d0             	lea    (%eax,%edx,8),%esi
 64b:	39 f1                	cmp    %esi,%ecx
 64d:	74 28                	je     677 <free+0x77>
 64f:	89 08                	mov    %ecx,(%eax)
 651:	5b                   	pop    %ebx
 652:	a3 64 0a 00 00       	mov    %eax,0xa64
 657:	5e                   	pop    %esi
 658:	5f                   	pop    %edi
 659:	5d                   	pop    %ebp
 65a:	c3                   	ret    
 65b:	8d 74 26 00          	lea    0x0(%esi,%eiz,1),%esi
 65f:	90                   	nop
 660:	03 72 04             	add    0x4(%edx),%esi
 663:	89 73 fc             	mov    %esi,-0x4(%ebx)
 666:	8b 10                	mov    (%eax),%edx
 668:	8b 12                	mov    (%edx),%edx
 66a:	89 53 f8             	mov    %edx,-0x8(%ebx)
 66d:	8b 50 04             	mov    0x4(%eax),%edx
 670:	8d 34 d0             	lea    (%eax,%edx,8),%esi
 673:	39 f1                	cmp    %esi,%ecx
 675:	75 d8                	jne    64f <free+0x4f>
 677:	03 53 fc             	add    -0x4(%ebx),%edx
 67a:	a3 64 0a 00 00       	mov    %eax,0xa64
 67f:	89 50 04             	mov    %edx,0x4(%eax)
 682:	8b 53 f8             	mov    -0x8(%ebx),%edx
 685:	89 10                	mov    %edx,(%eax)
 687:	5b                   	pop    %ebx
 688:	5e                   	pop    %esi
 689:	5f                   	pop    %edi
 68a:	5d                   	pop    %ebp
 68b:	c3                   	ret    
 68c:	8d 74 26 00          	lea    0x0(%esi,%eiz,1),%esi

00000690 <malloc>:
 690:	f3 0f 1e fb          	endbr32 
 694:	55                   	push   %ebp
 695:	89 e5                	mov    %esp,%ebp
 697:	57                   	push   %edi
 698:	56                   	push   %esi
 699:	53                   	push   %ebx
 69a:	83 ec 1c             	sub    $0x1c,%esp
 69d:	8b 45 08             	mov    0x8(%ebp),%eax
 6a0:	8b 3d 64 0a 00 00    	mov    0xa64,%edi
 6a6:	8d 70 07             	lea    0x7(%eax),%esi
 6a9:	c1 ee 03             	shr    $0x3,%esi
 6ac:	83 c6 01             	add    $0x1,%esi
 6af:	85 ff                	test   %edi,%edi
 6b1:	0f 84 a9 00 00 00    	je     760 <malloc+0xd0>
 6b7:	8b 07                	mov    (%edi),%eax
 6b9:	8b 48 04             	mov    0x4(%eax),%ecx
 6bc:	39 f1                	cmp    %esi,%ecx
 6be:	73 6d                	jae    72d <malloc+0x9d>
 6c0:	81 fe 00 10 00 00    	cmp    $0x1000,%esi
 6c6:	bb 00 10 00 00       	mov    $0x1000,%ebx
 6cb:	0f 43 de             	cmovae %esi,%ebx
 6ce:	8d 0c dd 00 00 00 00 	lea    0x0(,%ebx,8),%ecx
 6d5:	89 4d e4             	mov    %ecx,-0x1c(%ebp)
 6d8:	eb 17                	jmp    6f1 <malloc+0x61>
 6da:	8d b6 00 00 00 00    	lea    0x0(%esi),%esi
 6e0:	8b 10                	mov    (%eax),%edx
 6e2:	8b 4a 04             	mov    0x4(%edx),%ecx
 6e5:	39 f1                	cmp    %esi,%ecx
 6e7:	73 4f                	jae    738 <malloc+0xa8>
 6e9:	8b 3d 64 0a 00 00    	mov    0xa64,%edi
 6ef:	89 d0                	mov    %edx,%eax
 6f1:	39 c7                	cmp    %eax,%edi
 6f3:	75 eb                	jne    6e0 <malloc+0x50>
 6f5:	83 ec 0c             	sub    $0xc,%esp
 6f8:	ff 75 e4             	pushl  -0x1c(%ebp)
 6fb:	e8 5b fc ff ff       	call   35b <sbrk>
 700:	83 c4 10             	add    $0x10,%esp
 703:	83 f8 ff             	cmp    $0xffffffff,%eax
 706:	74 1b                	je     723 <malloc+0x93>
 708:	89 58 04             	mov    %ebx,0x4(%eax)
 70b:	83 ec 0c             	sub    $0xc,%esp
 70e:	83 c0 08             	add    $0x8,%eax
 711:	50                   	push   %eax
 712:	e8 e9 fe ff ff       	call   600 <free>
 717:	a1 64 0a 00 00       	mov    0xa64,%eax
 71c:	83 c4 10             	add    $0x10,%esp
 71f:	85 c0                	test   %eax,%eax
 721:	75 bd                	jne    6e0 <malloc+0x50>
 723:	8d 65 f4             	lea    -0xc(%ebp),%esp
 726:	31 c0                	xor    %eax,%eax
 728:	5b                   	pop    %ebx
 729:	5e                   	pop    %esi
 72a:	5f                   	pop    %edi
 72b:	5d                   	pop    %ebp
 72c:	c3                   	ret    
 72d:	89 c2                	mov    %eax,%edx
 72f:	89 f8                	mov    %edi,%eax
 731:	8d b4 26 00 00 00 00 	lea    0x0(%esi,%eiz,1),%esi
 738:	39 ce                	cmp    %ecx,%esi
 73a:	74 54                	je     790 <malloc+0x100>
 73c:	29 f1                	sub    %esi,%ecx
 73e:	89 4a 04             	mov    %ecx,0x4(%edx)
 741:	8d 14 ca             	lea    (%edx,%ecx,8),%edx
 744:	89 72 04             	mov    %esi,0x4(%edx)
 747:	a3 64 0a 00 00       	mov    %eax,0xa64
 74c:	8d 65 f4             	lea    -0xc(%ebp),%esp
 74f:	8d 42 08             	lea    0x8(%edx),%eax
 752:	5b                   	pop    %ebx
 753:	5e                   	pop    %esi
 754:	5f                   	pop    %edi
 755:	5d                   	pop    %ebp
 756:	c3                   	ret    
 757:	8d b4 26 00 00 00 00 	lea    0x0(%esi,%eiz,1),%esi
 75e:	66 90                	xchg   %ax,%ax
 760:	c7 05 64 0a 00 00 68 	movl   $0xa68,0xa64
 767:	0a 00 00 
 76a:	bf 68 0a 00 00       	mov    $0xa68,%edi
 76f:	c7 05 68 0a 00 00 68 	movl   $0xa68,0xa68
 776:	0a 00 00 
 779:	89 f8                	mov    %edi,%eax
 77b:	c7 05 6c 0a 00 00 00 	movl   $0x0,0xa6c
 782:	00 00 00 
 785:	e9 36 ff ff ff       	jmp    6c0 <malloc+0x30>
 78a:	8d b6 00 00 00 00    	lea    0x0(%esi),%esi
 790:	8b 0a                	mov    (%edx),%ecx
 792:	89 08                	mov    %ecx,(%eax)
 794:	eb b1                	jmp    747 <malloc+0xb7>
